; Function Attrs: mustprogress nounwind uwtable
define dso_local void @_ZN4node2fs15FSReqAfterScopeD2Ev(ptr noundef nonnull align 8 dereferenceable(48) %this) unnamed_addr #3 align 2 {
entry:
  %0 = load ptr, ptr %this, align 8
  %cmp.i.not.i = icmp eq ptr %0, null
  br i1 %cmp.i.not.i, label %_ZN4node2fs15FSReqAfterScope5ClearEv.exit, label %if.end.i

if.end.i:                                         ; preds = %entry
  %req_.i.i = getelementptr inbounds i8, ptr %0, i64 88
  tail call void @uv_fs_req_cleanup(ptr noundef nonnull %req_.i.i) #30
  %1 = load ptr, ptr %this, align 8
  %call.i.i = tail call noundef ptr @_ZN4node10BaseObject12pointer_dataEv(ptr noundef nonnull align 8 dereferenceable(32) %1) #30
  %2 = load i32, ptr %call.i.i, align 8
  %cmp.not.i.i = icmp eq i32 %2, 0
  br i1 %cmp.not.i.i, label %do.body4.i.i, label %_ZN4node10BaseObject6DetachEv.exit.i

do.body4.i.i:                                     ; preds = %if.end.i
  tail call void @_ZN4node6AssertERKNS_13AssertionInfoE(ptr noundef nonnull align 8 dereferenceable(24) @_ZZN4node10BaseObject6DetachEvE4args) #30
  tail call void @abort() #32
  unreachable

_ZN4node10BaseObject6DetachEv.exit.i:             ; preds = %if.end.i
  %call6.i.i = tail call noundef ptr @_ZN4node10BaseObject12pointer_dataEv(ptr noundef nonnull align 8 dereferenceable(32) %1) #30
  %is_detached.i.i = getelementptr inbounds i8, ptr %call6.i.i, i64 9
  store i8 1, ptr %is_detached.i.i, align 1
  %3 = load ptr, ptr %this, align 8
  %cmp.not.i.i.i.i = icmp eq ptr %3, null
  br i1 %cmp.not.i.i.i.i, label %_ZN4node17BaseObjectPtrImplINS_2fs9FSReqBaseELb0EE5resetEPS2_.exit.i, label %if.then.i.i.i.i

if.then.i.i.i.i:                                  ; preds = %_ZN4node10BaseObject6DetachEv.exit.i
  tail call void @_ZN4node10BaseObject17decrease_refcountEv(ptr noundef nonnull align 8 dereferenceable(32) %3) #30
  br label %_ZN4node17BaseObjectPtrImplINS_2fs9FSReqBaseELb0EE5resetEPS2_.exit.i

_ZN4node17BaseObjectPtrImplINS_2fs9FSReqBaseELb0EE5resetEPS2_.exit.i: ; preds = %if.then.i.i.i.i, %_ZN4node10BaseObject6DetachEv.exit.i
  store i64 0, ptr %this, align 8
  br label %_ZN4node2fs15FSReqAfterScope5ClearEv.exit

_ZN4node2fs15FSReqAfterScope5ClearEv.exit:        ; preds = %entry, %_ZN4node17BaseObjectPtrImplINS_2fs9FSReqBaseELb0EE5resetEPS2_.exit.i
  %context_scope_ = getelementptr inbounds i8, ptr %this, i64 40
  %4 = load ptr, ptr %context_scope_, align 8
  tail call void @_ZN2v87Context4ExitEv(ptr noundef nonnull align 1 dereferenceable(1) %4) #30
  %handle_scope_ = getelementptr inbounds i8, ptr %this, i64 16
  tail call void @_ZN2v811HandleScopeD1Ev(ptr noundef nonnull align 8 dereferenceable(24) %handle_scope_) #30
  %5 = load ptr, ptr %this, align 8
  %cmp.not.i = icmp eq ptr %5, null
  br i1 %cmp.not.i, label %_ZN4node17BaseObjectPtrImplINS_2fs9FSReqBaseELb0EED2Ev.exit, label %if.then.i

if.then.i:                                        ; preds = %_ZN4node2fs15FSReqAfterScope5ClearEv.exit
  tail call void @_ZN4node10BaseObject17decrease_refcountEv(ptr noundef nonnull align 8 dereferenceable(32) %5) #30
  br label %_ZN4node17BaseObjectPtrImplINS_2fs9FSReqBaseELb0EED2Ev.exit

_ZN4node17BaseObjectPtrImplINS_2fs9FSReqBaseELb0EED2Ev.exit: ; preds = %_ZN4node2fs15FSReqAfterScope5ClearEv.exit, %if.then.i
  ret void
}